; Function Attrs: mustprogress uwtable
define dso_local void @_ZNK4pbrt13RGBColorSpace8ToStringB5cxx11Ev(ptr dead_on_unwind noalias writable sret(%"class.std::__cxx11::basic_string") align 8 %0, ptr noundef nonnull align 8 dereferenceable(152) %1) local_unnamed_addr #6 align 2 personality ptr @__gxx_personality_v0 {
  %3 = getelementptr inbounds nuw i8, ptr %1, i64 8
  %4 = getelementptr inbounds nuw i8, ptr %1, i64 16
  %5 = getelementptr inbounds nuw i8, ptr %1, i64 24
  %6 = getelementptr inbounds nuw i8, ptr %1, i64 32
  %7 = getelementptr inbounds nuw i8, ptr %1, i64 72
  %8 = getelementptr inbounds nuw i8, ptr %1, i64 108
  %9 = getelementptr inbounds nuw i8, ptr %0, i64 16
  store ptr %9, ptr %0, align 8, !tbaa !61, !alias.scope !71
  %10 = getelementptr inbounds nuw i8, ptr %0, i64 8
  store i64 0, ptr %10, align 8, !tbaa !64, !alias.scope !71
  store i8 0, ptr %9, align 8, !tbaa !36, !alias.scope !71
  invoke void @_ZN4pbrt6detail21stringPrintfRecursiveIRKNS_6Point2IfEEJS5_S5_S5_RKNS_22DenselySampledSpectrumERKNS_12SquareMatrixILi3EEESC_EEEvPNSt7__cxx1112basic_stringIcSt11char_traitsIcESaIcEEEPKcOT_DpOT0_(ptr noundef nonnull align 8 %0, ptr noundef nonnull @.str.7, ptr noundef nonnull align 4 dereferenceable(8) %1, ptr noundef nonnull align 4 dereferenceable(8) %3, ptr noundef nonnull align 4 dereferenceable(8) %4, ptr noundef nonnull align 4 dereferenceable(8) %5, ptr noundef nonnull align 8 dereferenceable(40) %6, ptr noundef nonnull align 4 dereferenceable(36) %7, ptr noundef nonnull align 4 dereferenceable(36) %8)
          to label %_ZN4pbrt12StringPrintfIJRKNS_6Point2IfEES4_S4_S4_RKNS_22DenselySampledSpectrumERKNS_12SquareMatrixILi3EEESB_EEENSt7__cxx1112basic_stringIcSt11char_traitsIcESaIcEEEPKcDpOT_.exit unwind label %11

11:                                               ; preds = %2
  %12 = landingpad { ptr, i32 }
          cleanup
  %13 = load ptr, ptr %0, align 8, !tbaa !66, !alias.scope !71
  %14 = icmp eq ptr %13, %9
  br i1 %14, label %_ZNKSt7__cxx1112basic_stringIcSt11char_traitsIcESaIcEE11_M_is_localEv.exit.thread.i.i.i, label %_ZNKSt7__cxx1112basic_stringIcSt11char_traitsIcESaIcEE11_M_is_localEv.exit.i.i.i

_ZNKSt7__cxx1112basic_stringIcSt11char_traitsIcESaIcEE11_M_is_localEv.exit.thread.i.i.i: ; preds = %11
  %15 = load i64, ptr %10, align 8, !tbaa !64, !alias.scope !71
  %16 = icmp ult i64 %15, 16
  tail call void @llvm.assume(i1 %16)
  br label %_ZNSt7__cxx1112basic_stringIcSt11char_traitsIcESaIcEED2Ev.exit.i

_ZNKSt7__cxx1112basic_stringIcSt11char_traitsIcESaIcEE11_M_is_localEv.exit.i.i.i: ; preds = %11
  %17 = load i64, ptr %9, align 8, !tbaa !36, !alias.scope !71
  %18 = add i64 %17, 1
  tail call void @_ZdlPvm(ptr noundef %13, i64 noundef %18) #27
  br label %_ZNSt7__cxx1112basic_stringIcSt11char_traitsIcESaIcEED2Ev.exit.i

_ZNSt7__cxx1112basic_stringIcSt11char_traitsIcESaIcEED2Ev.exit.i: ; preds = %_ZNKSt7__cxx1112basic_stringIcSt11char_traitsIcESaIcEE11_M_is_localEv.exit.i.i.i, %_ZNKSt7__cxx1112basic_stringIcSt11char_traitsIcESaIcEE11_M_is_localEv.exit.thread.i.i.i
  resume { ptr, i32 } %12

_ZN4pbrt12StringPrintfIJRKNS_6Point2IfEES4_S4_S4_RKNS_22DenselySampledSpectrumERKNS_12SquareMatrixILi3EEESB_EEENSt7__cxx1112basic_stringIcSt11char_traitsIcESaIcEEEPKcDpOT_.exit: ; preds = %2
  ret void
}